target datalayout = "e-m:e-p270:32:32-p271:32:32-p272:64:64-i64:64-i128:128-f80:128-n8:16:32:64-S128"
target triple = "x86_64-unknown-linux-gnu"

%"class.dimacs::stream_buffer" = type { ptr, i32, i32 }
%class.svector.26 = type { %class.vector.27 }
%class.vector.27 = type { ptr }
%"class.sat::status" = type { i32, i32, ptr }
%"class.std::_Function_base" = type { %"union.std::_Any_data", ptr }
%"union.std::_Any_data" = type { %"union.std::_Nocopy_types" }
%"union.std::_Nocopy_types" = type { { i64, i64 } }
%"struct.dimacs::drat_record" = type { %class.svector.26, %"class.sat::status" }
%"class.dimacs::drat_parser" = type { %"class.dimacs::stream_buffer", ptr, %"struct.dimacs::drat_record", %"class.std::function.51", %class.svector.24 }
%"class.std::function.51" = type { %"class.std::_Function_base", ptr }
%class.svector.24 = type { %class.vector.25 }
%class.vector.25 = type { ptr }

@_ZTIN6dimacs9lex_errorE = linkonce_odr hidden constant { ptr, ptr } { ptr getelementptr inbounds (ptr, ptr @_ZTVN10__cxxabiv117__class_type_infoE, i64 2), ptr @_ZTSN6dimacs9lex_errorE }, comdat, align 8

; Function Attrs: noreturn nounwind uwtable
define linkonce_odr hidden void @__clang_call_terminate(ptr noundef %0) #8 comdat {
  %2 = call ptr @__cxa_begin_catch(ptr %0) #3
  call void @_ZSt9terminatev() #14
  unreachable
}

; Function Attrs: mustprogress nounwind uwtable
define linkonce_odr hidden noundef zeroext i1 @_ZNKSt14_Function_base8_M_emptyEv(ptr noundef nonnull align 8 dereferenceable(24) %this) #4 comdat align 2 {
entry:
  %this.addr = alloca ptr, align 8
  store ptr %this, ptr %this.addr, align 8
  %this1 = load ptr, ptr %this.addr, align 8
  %_M_manager = getelementptr inbounds %"class.std::_Function_base", ptr %this1, i32 0, i32 1
  %0 = load ptr, ptr %_M_manager, align 8
  %tobool = icmp ne ptr %0, null
  %lnot = xor i1 %tobool, true
  ret i1 %lnot
}

; Function Attrs: mustprogress uwtable
define linkonce_odr hidden void @_ZN6dimacs13stream_bufferppEv(ptr noundef nonnull align 8 dereferenceable(16) %this) #5 comdat align 2 {
entry:
  %this.addr = alloca ptr, align 8
  store ptr %this, ptr %this.addr, align 8
  %this1 = load ptr, ptr %this.addr, align 8
  %m_stream = getelementptr inbounds %"class.dimacs::stream_buffer", ptr %this1, i32 0, i32 0
  %0 = load ptr, ptr %m_stream, align 8
  %call = call noundef i32 @_ZNSi3getEv(ptr noundef nonnull align 8 dereferenceable(16) %0)
  %m_val = getelementptr inbounds %"class.dimacs::stream_buffer", ptr %this1, i32 0, i32 1
  store i32 %call, ptr %m_val, align 8
  %m_val2 = getelementptr inbounds %"class.dimacs::stream_buffer", ptr %this1, i32 0, i32 1
  %1 = load i32, ptr %m_val2, align 8
  %cmp = icmp eq i32 %1, 10
  br i1 %cmp, label %if.then, label %if.end

if.then:                                          ; preds = %entry
  %m_line = getelementptr inbounds %"class.dimacs::stream_buffer", ptr %this1, i32 0, i32 2
  %2 = load i32, ptr %m_line, align 4
  %inc = add i32 %2, 1
  store i32 %inc, ptr %m_line, align 4
  br label %if.end

if.end:                                           ; preds = %if.then, %entry
  ret void
}

; Function Attrs: mustprogress nounwind uwtable
define internal noundef zeroext i1 @_ZL13is_whitespaceIN6dimacs13stream_bufferEEbRT_(ptr noundef nonnull align 8 dereferenceable(16) %in) #4 {
entry:
  %in.addr = alloca ptr, align 8
  store ptr %in, ptr %in.addr, align 8
  %0 = load ptr, ptr %in.addr, align 8
  %call = call noundef i32 @_ZNK6dimacs13stream_bufferdeEv(ptr noundef nonnull align 8 dereferenceable(16) %0)
  %cmp = icmp sge i32 %call, 9
  br i1 %cmp, label %land.lhs.true, label %lor.rhs

land.lhs.true:                                    ; preds = %entry
  %1 = load ptr, ptr %in.addr, align 8
  %call1 = call noundef i32 @_ZNK6dimacs13stream_bufferdeEv(ptr noundef nonnull align 8 dereferenceable(16) %1)
  %cmp2 = icmp sle i32 %call1, 13
  br i1 %cmp2, label %lor.end, label %lor.rhs

lor.rhs:                                          ; preds = %land.lhs.true, %entry
  %2 = load ptr, ptr %in.addr, align 8
  %call3 = call noundef i32 @_ZNK6dimacs13stream_bufferdeEv(ptr noundef nonnull align 8 dereferenceable(16) %2)
  %cmp4 = icmp eq i32 %call3, 32
  br label %lor.end

lor.end:                                          ; preds = %lor.rhs, %land.lhs.true
  %3 = phi i1 [ true, %land.lhs.true ], [ %cmp4, %lor.rhs ]
  ret i1 %3
}

; Function Attrs: mustprogress uwtable
define linkonce_odr hidden noundef i32 @_ZNKSt8functionIFiPKcEEclES1_(ptr noundef nonnull align 8 dereferenceable(32) %this, ptr noundef %__args) #5 comdat align 2 {
entry:
  %this.addr = alloca ptr, align 8
  %__args.addr = alloca ptr, align 8
  store ptr %this, ptr %this.addr, align 8
  store ptr %__args, ptr %__args.addr, align 8
  %this1 = load ptr, ptr %this.addr, align 8
  %call = call noundef zeroext i1 @_ZNKSt14_Function_base8_M_emptyEv(ptr noundef nonnull align 8 dereferenceable(24) %this1)
  br i1 %call, label %if.then, label %if.end

if.then:                                          ; preds = %entry
  call void @_ZSt25__throw_bad_function_callv() #13
  unreachable

if.end:                                           ; preds = %entry
  %_M_invoker = getelementptr inbounds %"class.std::function.51", ptr %this1, i32 0, i32 1
  %0 = load ptr, ptr %_M_invoker, align 8
  %_M_functor = getelementptr inbounds %"class.std::_Function_base", ptr %this1, i32 0, i32 0
  %call2 = call noundef i32 %0(ptr noundef nonnull align 8 dereferenceable(16) %_M_functor, ptr noundef nonnull align 8 dereferenceable(8) %__args.addr)
  ret i32 %call2
}

; Function Attrs: mustprogress nounwind uwtable
define linkonce_odr hidden noundef zeroext i1 @_ZNKSt8functionIFiPKcEEcvbEv(ptr noundef nonnull align 8 dereferenceable(32) %this) #4 comdat align 2 personality ptr @__gxx_personality_v0 {
entry:
  %this.addr = alloca ptr, align 8
  store ptr %this, ptr %this.addr, align 8
  %this1 = load ptr, ptr %this.addr, align 8
  %call = invoke noundef zeroext i1 @_ZNKSt14_Function_base8_M_emptyEv(ptr noundef nonnull align 8 dereferenceable(24) %this1)
          to label %invoke.cont unwind label %terminate.lpad

invoke.cont:                                      ; preds = %entry
  %lnot = xor i1 %call, true
  ret i1 %lnot

terminate.lpad:                                   ; preds = %entry
  %0 = landingpad { ptr, i32 }
          catch ptr null
  %1 = extractvalue { ptr, i32 } %0, 0
  call void @__clang_call_terminate(ptr %1) #14
  unreachable
}

; Function Attrs: mustprogress nounwind uwtable
define linkonce_odr hidden noundef i32 @_ZNK6dimacs13stream_bufferdeEv(ptr noundef nonnull align 8 dereferenceable(16) %this) #4 comdat align 2 {
entry:
  %this.addr = alloca ptr, align 8
  store ptr %this, ptr %this.addr, align 8
  %this1 = load ptr, ptr %this.addr, align 8
  %m_val = getelementptr inbounds %"class.dimacs::stream_buffer", ptr %this1, i32 0, i32 1
  %0 = load i32, ptr %m_val, align 8
  ret i32 %0
}

; Function Attrs: mustprogress uwtable
define internal void @_ZL15skip_whitespaceIN6dimacs13stream_bufferEEvRT_(ptr noundef nonnull align 8 dereferenceable(16) %in) #5 {
entry:
  %in.addr = alloca ptr, align 8
  store ptr %in, ptr %in.addr, align 8
  br label %while.cond

while.cond:                                       ; preds = %while.body, %entry
  %0 = load ptr, ptr %in.addr, align 8
  %call = call noundef zeroext i1 @_ZL13is_whitespaceIN6dimacs13stream_bufferEEbRT_(ptr noundef nonnull align 8 dereferenceable(16) %0)
  br i1 %call, label %while.body, label %while.end

while.body:                                       ; preds = %while.cond
  %1 = load ptr, ptr %in.addr, align 8
  call void @_ZN6dimacs13stream_bufferppEv(ptr noundef nonnull align 8 dereferenceable(16) %1)
  br label %while.cond, !llvm.loop !9

while.end:                                        ; preds = %while.cond
  ret void
}

; Function Attrs: mustprogress uwtable
define hidden noundef i32 @_ZN6dimacs11drat_parser14read_theory_idEv(ptr noundef nonnull align 8 dereferenceable(88) %this) #5 align 2 {
entry:
  %retval = alloca i32, align 4
  %this.addr = alloca ptr, align 8
  store ptr %this, ptr %this.addr, align 8
  %this1 = load ptr, ptr %this.addr, align 8
  %in = getelementptr inbounds %"class.dimacs::drat_parser", ptr %this1, i32 0, i32 0
  call void @_ZL15skip_whitespaceIN6dimacs13stream_bufferEEvRT_(ptr noundef nonnull align 8 dereferenceable(16) %in)
  %in2 = getelementptr inbounds %"class.dimacs::drat_parser", ptr %this1, i32 0, i32 0
  %call = call noundef i32 @_ZNK6dimacs13stream_bufferdeEv(ptr noundef nonnull align 8 dereferenceable(16) %in2)
  %cmp = icmp sle i32 97, %call
  br i1 %cmp, label %land.lhs.true, label %if.else

land.lhs.true:                                    ; preds = %entry
  %in3 = getelementptr inbounds %"class.dimacs::drat_parser", ptr %this1, i32 0, i32 0
  %call4 = call noundef i32 @_ZNK6dimacs13stream_bufferdeEv(ptr noundef nonnull align 8 dereferenceable(16) %in3)
  %cmp5 = icmp sle i32 %call4, 122
  br i1 %cmp5, label %if.then, label %if.else

if.then:                                          ; preds = %land.lhs.true
  %m_read_theory_id = getelementptr inbounds %"class.dimacs::drat_parser", ptr %this1, i32 0, i32 3
  %call6 = call noundef zeroext i1 @_ZNKSt8functionIFiPKcEEcvbEv(ptr noundef nonnull align 8 dereferenceable(32) %m_read_theory_id) #3
  br i1 %call6, label %if.end, label %if.then7

if.then7:                                         ; preds = %if.then
  %exception = call ptr @__cxa_allocate_exception(i64 1) #3
  call void @__cxa_throw(ptr %exception, ptr @_ZTIN6dimacs9lex_errorE, ptr null) #13
  unreachable

if.end:                                           ; preds = %if.then
  %m_read_theory_id8 = getelementptr inbounds %"class.dimacs::drat_parser", ptr %this1, i32 0, i32 3
  %call9 = call noundef ptr @_ZN6dimacs11drat_parser16parse_identifierEv(ptr noundef nonnull align 8 dereferenceable(88) %this1)
  %call10 = call noundef i32 @_ZNKSt8functionIFiPKcEEclES1_(ptr noundef nonnull align 8 dereferenceable(32) %m_read_theory_id8, ptr noundef %call9)
  store i32 %call10, ptr %retval, align 4
  br label %return

if.else:                                          ; preds = %land.lhs.true, %entry
  store i32 -1, ptr %retval, align 4
  br label %return

return:                                           ; preds = %if.else, %if.end
  %0 = load i32, ptr %retval, align 4
  ret i32 %0
}