; Function Attrs: mustprogress uwtable
define hidden noundef i32 @_ZN6dimacs11drat_parser14read_theory_idEv(ptr noundef nonnull align 8 dereferenceable(88) %this) local_unnamed_addr #3 align 2 personality ptr @__gxx_personality_v0 {
entry:
  %__args.addr.i = alloca ptr, align 8
  %0 = getelementptr inbounds i8, ptr %this, i64 8
  %m_line.i.i = getelementptr inbounds i8, ptr %this, i64 12
  %in.val.pre.i = load i32, ptr %0, align 8
  br label %while.cond.i

while.cond.i:                                     ; preds = %while.cond.i.backedge, %entry
  %1 = phi i32 [ %in.val.pre.i, %entry ], [ %call.i.i, %while.cond.i.backedge ]
  switch i32 %1, label %_ZL15skip_whitespaceIN6dimacs13stream_bufferEEvRT_.exit [
    i32 32, label %while.body.i
    i32 13, label %while.body.i
    i32 12, label %while.body.i
    i32 11, label %while.body.i
    i32 10, label %while.body.i
    i32 9, label %while.body.i
  ]

while.body.i:                                     ; preds = %while.cond.i, %while.cond.i, %while.cond.i, %while.cond.i, %while.cond.i, %while.cond.i
  %2 = load ptr, ptr %this, align 8
  %call.i.i = tail call noundef i32 @_ZNSi3getEv(ptr noundef nonnull align 8 dereferenceable(16) %2)
  store i32 %call.i.i, ptr %0, align 8
  %cmp.i.i = icmp eq i32 %call.i.i, 10
  br i1 %cmp.i.i, label %if.then.i.i, label %while.cond.i.backedge

if.then.i.i:                                      ; preds = %while.body.i
  %3 = load i32, ptr %m_line.i.i, align 4
  %inc.i.i = add i32 %3, 1
  store i32 %inc.i.i, ptr %m_line.i.i, align 4
  br label %while.cond.i.backedge

while.cond.i.backedge:                            ; preds = %if.then.i.i, %while.body.i
  br label %while.cond.i, !llvm.loop !4

_ZL15skip_whitespaceIN6dimacs13stream_bufferEEvRT_.exit: ; preds = %while.cond.i
  %4 = add i32 %1, -97
  %or.cond = icmp ult i32 %4, 26
  br i1 %or.cond, label %if.then, label %return

if.then:                                          ; preds = %_ZL15skip_whitespaceIN6dimacs13stream_bufferEEvRT_.exit
  %m_read_theory_id = getelementptr inbounds i8, ptr %this, i64 48
  %_M_manager.i.i = getelementptr inbounds i8, ptr %this, i64 64
  %5 = load ptr, ptr %_M_manager.i.i, align 8
  %tobool.not.i.i.not = icmp eq ptr %5, null
  br i1 %tobool.not.i.i.not, label %if.then7, label %if.end

if.then7:                                         ; preds = %if.then
  %exception = tail call ptr @__cxa_allocate_exception(i64 1) #16
  tail call void @__cxa_throw(ptr %exception, ptr nonnull @_ZTIN6dimacs9lex_errorE, ptr null) #17
  unreachable

if.end:                                           ; preds = %if.then
  %call9 = tail call noundef ptr @_ZN6dimacs11drat_parser16parse_identifierEv(ptr noundef nonnull align 8 dereferenceable(88) %this)
  call void @llvm.lifetime.start.p0(i64 8, ptr nonnull %__args.addr.i)
  store ptr %call9, ptr %__args.addr.i, align 8
  %6 = load ptr, ptr %_M_manager.i.i, align 8
  %tobool.not.i.i3 = icmp eq ptr %6, null
  br i1 %tobool.not.i.i3, label %if.then.i, label %_ZNKSt8functionIFiPKcEEclES1_.exit

if.then.i:                                        ; preds = %if.end
  tail call void @_ZSt25__throw_bad_function_callv() #17
  unreachable

_ZNKSt8functionIFiPKcEEclES1_.exit:               ; preds = %if.end
  %_M_invoker.i = getelementptr inbounds i8, ptr %this, i64 72
  %7 = load ptr, ptr %_M_invoker.i, align 8
  %call2.i = call noundef i32 %7(ptr noundef nonnull align 8 dereferenceable(16) %m_read_theory_id, ptr noundef nonnull align 8 dereferenceable(8) %__args.addr.i)
  call void @llvm.lifetime.end.p0(i64 8, ptr nonnull %__args.addr.i)
  br label %return

return:                                           ; preds = %_ZL15skip_whitespaceIN6dimacs13stream_bufferEEvRT_.exit, %_ZNKSt8functionIFiPKcEEclES1_.exit
  %retval.0 = phi i32 [ %call2.i, %_ZNKSt8functionIFiPKcEEclES1_.exit ], [ -1, %_ZL15skip_whitespaceIN6dimacs13stream_bufferEEvRT_.exit ]
  ret i32 %retval.0
}